target datalayout = "e-m:e-p270:32:32-p271:32:32-p272:64:64-i64:64-i128:128-f80:128-n8:16:32:64-S128"
target triple = "x86_64-pc-linux-gnu"

%struct.FT_ListRec_ = type { ptr, ptr }
%struct.FT_FaceRec_ = type { i64, i64, i64, i64, i64, ptr, ptr, i32, ptr, i32, ptr, %struct.FT_Generic_, %struct.FT_BBox_, i16, i16, i16, i16, i16, i16, i16, i16, ptr, ptr, ptr, ptr, ptr, ptr, %struct.FT_ListRec_, %struct.FT_Generic_, ptr, ptr }
%struct.FT_BBox_ = type { i64, i64, i64, i64 }
%struct.FT_Generic_ = type { ptr, ptr }
%struct.TT_FaceRec_ = type { %struct.FT_FaceRec_, %struct.TTC_HeaderRec_, i64, i16, ptr, %struct.TT_Header_, %struct.TT_HoriHeader_, %struct.TT_MaxProfile_, i8, %struct.TT_VertHeader_, i16, %struct.TT_NameTableRec_, %struct.TT_OS2_, %struct.TT_Postscript_, ptr, i64, ptr, ptr, ptr, ptr, ptr, ptr, ptr, ptr, ptr, ptr, ptr, ptr, %struct.TT_Gasp_, %struct.TT_PCLT_, i64, ptr, %struct.TT_Post_NamesRec_, %struct.FT_Palette_Data_, i16, ptr, i8, %struct.FT_Color_, i64, ptr, i64, ptr, i64, ptr, ptr, %struct.FT_Generic_, ptr, i64, i64, i8, i8, ptr, i32, ptr, i32, i32, ptr, i64, i64, i64, ptr, ptr, i64, i32, i64, ptr, ptr, i64, i32, i32, ptr, ptr, i64, i32, i32, i32, %struct.TT_BDFRec_, i64, i64, i64, i64, ptr, ptr, ptr }
%struct.TTC_HeaderRec_ = type { i64, i64, i64, ptr }
%struct.TT_Header_ = type { i64, i64, i64, i64, i16, i16, [2 x i64], [2 x i64], i16, i16, i16, i16, i16, i16, i16, i16, i16 }
%struct.TT_HoriHeader_ = type { i64, i16, i16, i16, i16, i16, i16, i16, i16, i16, i16, [4 x i16], i16, i16, ptr, ptr }
%struct.TT_MaxProfile_ = type { i64, i16, i16, i16, i16, i16, i16, i16, i16, i16, i16, i16, i16, i16, i16 }
%struct.TT_VertHeader_ = type { i64, i16, i16, i16, i16, i16, i16, i16, i16, i16, i16, [4 x i16], i16, i16, ptr, ptr }
%struct.TT_NameTableRec_ = type { i16, i32, i32, ptr, i32, ptr, ptr }
%struct.TT_OS2_ = type { i16, i16, i16, i16, i16, i16, i16, i16, i16, i16, i16, i16, i16, i16, i16, i16, [10 x i8], i64, i64, i64, i64, [4 x i8], i16, i16, i16, i16, i16, i16, i16, i16, i64, i64, i16, i16, i16, i16, i16, i16, i16 }
%struct.TT_Postscript_ = type { i64, i64, i16, i16, i64, i64, i64, i64, i64 }
%struct.TT_Gasp_ = type { i16, i16, ptr }
%struct.TT_PCLT_ = type { i64, i64, i16, i16, i16, i16, i16, i16, [16 x i8], [8 x i8], [6 x i8], i8, i8, i8, i8 }
%struct.TT_Post_NamesRec_ = type { i8, i16, i16, ptr, ptr }
%struct.FT_Palette_Data_ = type { i16, ptr, ptr, i16, ptr }
%struct.FT_Color_ = type { i8, i8, i8, i8 }
%struct.TT_BDFRec_ = type { ptr, ptr, ptr, i64, i32, i8 }
%struct.GX_BlendRec_ = type { i32, ptr, ptr, ptr, i64, ptr, i8, ptr, i8, i8, i32, ptr, i8, i8, i32, ptr, ptr, i32, ptr, i32, ptr, i64 }

; Function Attrs: nounwind uwtable
define internal i32 @TT_Get_Var_Design(ptr noundef %0, i32 noundef %1, ptr noundef %2) #0 {
  %4 = alloca i32, align 4
  %5 = alloca ptr, align 8
  %6 = alloca i32, align 4
  %7 = alloca ptr, align 8
  %8 = alloca ptr, align 8
  %9 = alloca i32, align 4
  %10 = alloca ptr, align 8
  %11 = alloca i32, align 4
  %12 = alloca i32, align 4
  store ptr %0, ptr %5, align 8
  store i32 %1, ptr %6, align 4
  store ptr %2, ptr %7, align 8
  %13 = load ptr, ptr %5, align 8
  store ptr %13, ptr %8, align 8
  store i32 0, ptr %9, align 4
  %14 = load ptr, ptr %8, align 8
  %15 = getelementptr inbounds %struct.TT_FaceRec_, ptr %14, i32 0, i32 51
  %16 = load ptr, ptr %15, align 8
  %17 = icmp ne ptr %16, null
  br i1 %17, label %25, label %18

18:                                               ; preds = %3
  %19 = load ptr, ptr %5, align 8
  %20 = call i32 @TT_Get_MM_Var(ptr noundef %19, ptr noundef null)
  store i32 %20, ptr %9, align 4
  %21 = icmp ne i32 %20, 0
  br i1 %21, label %22, label %24

22:                                               ; preds = %18
  %23 = load i32, ptr %9, align 4
  store i32 %23, ptr %4, align 4
  br label %107

24:                                               ; preds = %18
  br label %25

25:                                               ; preds = %24, %3
  %26 = load ptr, ptr %8, align 8
  %27 = getelementptr inbounds %struct.TT_FaceRec_, ptr %26, i32 0, i32 51
  %28 = load ptr, ptr %27, align 8
  store ptr %28, ptr %10, align 8
  %29 = load ptr, ptr %10, align 8
  %30 = getelementptr inbounds %struct.GX_BlendRec_, ptr %29, i32 0, i32 1
  %31 = load ptr, ptr %30, align 8
  %32 = icmp ne ptr %31, null
  br i1 %32, label %40, label %33

33:                                               ; preds = %25
  %34 = load ptr, ptr %8, align 8
  %35 = call i32 @tt_set_mm_blend(ptr noundef %34, i32 noundef 0, ptr noundef null, i8 noundef zeroext 1)
  store i32 %35, ptr %9, align 4
  %36 = icmp ne i32 %35, 0
  br i1 %36, label %37, label %39

37:                                               ; preds = %33
  %38 = load i32, ptr %9, align 4
  store i32 %38, ptr %4, align 4
  br label %107

39:                                               ; preds = %33
  br label %40

40:                                               ; preds = %39, %25
  %41 = load i32, ptr %6, align 4
  store i32 %41, ptr %12, align 4
  %42 = load i32, ptr %6, align 4
  %43 = load ptr, ptr %10, align 8
  %44 = getelementptr inbounds %struct.GX_BlendRec_, ptr %43, i32 0, i32 0
  %45 = load i32, ptr %44, align 8
  %46 = icmp ugt i32 %42, %45
  br i1 %46, label %47, label %53

47:                                               ; preds = %40
  br label %48

48:                                               ; preds = %47
  br label %49

49:                                               ; preds = %48
  %50 = load ptr, ptr %10, align 8
  %51 = getelementptr inbounds %struct.GX_BlendRec_, ptr %50, i32 0, i32 0
  %52 = load i32, ptr %51, align 8
  store i32 %52, ptr %12, align 4
  br label %53

53:                                               ; preds = %49, %40
  %54 = load ptr, ptr %8, align 8
  %55 = getelementptr inbounds %struct.TT_FaceRec_, ptr %54, i32 0, i32 50
  %56 = load i8, ptr %55, align 1
  %57 = icmp ne i8 %56, 0
  br i1 %57, label %58, label %79

58:                                               ; preds = %53
  store i32 0, ptr %11, align 4
  br label %59

59:                                               ; preds = %75, %58
  %60 = load i32, ptr %11, align 4
  %61 = load i32, ptr %12, align 4
  %62 = icmp ult i32 %60, %61
  br i1 %62, label %63, label %78

63:                                               ; preds = %59
  %64 = load ptr, ptr %10, align 8
  %65 = getelementptr inbounds %struct.GX_BlendRec_, ptr %64, i32 0, i32 1
  %66 = load ptr, ptr %65, align 8
  %67 = load i32, ptr %11, align 4
  %68 = zext i32 %67 to i64
  %69 = getelementptr inbounds i64, ptr %66, i64 %68
  %70 = load i64, ptr %69, align 8
  %71 = load ptr, ptr %7, align 8
  %72 = load i32, ptr %11, align 4
  %73 = zext i32 %72 to i64
  %74 = getelementptr inbounds i64, ptr %71, i64 %73
  store i64 %70, ptr %74, align 8
  br label %75

75:                                               ; preds = %63
  %76 = load i32, ptr %11, align 4
  %77 = add i32 %76, 1
  store i32 %77, ptr %11, align 4
  br label %59, !llvm.loop !53

78:                                               ; preds = %59
  br label %93

79:                                               ; preds = %53
  store i32 0, ptr %11, align 4
  br label %80

80:                                               ; preds = %89, %79
  %81 = load i32, ptr %11, align 4
  %82 = load i32, ptr %12, align 4
  %83 = icmp ult i32 %81, %82
  br i1 %83, label %84, label %92

84:                                               ; preds = %80
  %85 = load ptr, ptr %7, align 8
  %86 = load i32, ptr %11, align 4
  %87 = zext i32 %86 to i64
  %88 = getelementptr inbounds i64, ptr %85, i64 %87
  store i64 0, ptr %88, align 8
  br label %89

89:                                               ; preds = %84
  %90 = load i32, ptr %11, align 4
  %91 = add i32 %90, 1
  store i32 %91, ptr %11, align 4
  br label %80, !llvm.loop !54

92:                                               ; preds = %80
  br label %93

93:                                               ; preds = %92, %78
  br label %94

94:                                               ; preds = %103, %93
  %95 = load i32, ptr %11, align 4
  %96 = load i32, ptr %6, align 4
  %97 = icmp ult i32 %95, %96
  br i1 %97, label %98, label %106

98:                                               ; preds = %94
  %99 = load ptr, ptr %7, align 8
  %100 = load i32, ptr %11, align 4
  %101 = zext i32 %100 to i64
  %102 = getelementptr inbounds i64, ptr %99, i64 %101
  store i64 0, ptr %102, align 8
  br label %103

103:                                              ; preds = %98
  %104 = load i32, ptr %11, align 4
  %105 = add i32 %104, 1
  store i32 %105, ptr %11, align 4
  br label %94, !llvm.loop !55

106:                                              ; preds = %94
  store i32 0, ptr %4, align 4
  br label %107

107:                                              ; preds = %106, %37, %22
  %108 = load i32, ptr %4, align 4
  ret i32 %108
}