; Function Attrs: nounwind uwtable
define internal i32 @TT_Get_Var_Design(ptr noundef %0, i32 noundef %1, ptr nocapture noundef writeonly %2) #2 {
  %4 = getelementptr inbounds i8, ptr %0, i64 1216
  %5 = load ptr, ptr %4, align 8
  %.not = icmp eq ptr %5, null
  br i1 %.not, label %6, label %8

6:                                                ; preds = %3
  %7 = tail call i32 @TT_Get_MM_Var(ptr noundef nonnull %0, ptr noundef null)
  %.not36 = icmp eq i32 %7, 0
  br i1 %.not36, label %._crit_edge, label %.loopexit

._crit_edge:                                      ; preds = %6
  %.pre = load ptr, ptr %4, align 8
  br label %8

8:                                                ; preds = %._crit_edge, %3
  %9 = phi ptr [ %.pre, %._crit_edge ], [ %5, %3 ]
  %10 = getelementptr inbounds i8, ptr %9, i64 8
  %11 = load ptr, ptr %10, align 8
  %.not37 = icmp eq ptr %11, null
  br i1 %.not37, label %12, label %14

12:                                               ; preds = %8
  %13 = tail call fastcc i32 @tt_set_mm_blend(ptr noundef nonnull %0, i32 noundef 0, ptr noundef null, i8 noundef zeroext 1)
  %.not38 = icmp eq i32 %13, 0
  br i1 %.not38, label %14, label %.loopexit

14:                                               ; preds = %12, %8
  %15 = load i32, ptr %9, align 8
  %spec.select = tail call i32 @llvm.umin.i32(i32 %15, i32 %1)
  %16 = getelementptr inbounds i8, ptr %0, i64 1209
  %17 = load i8, ptr %16, align 1
  %.not39 = icmp eq i8 %17, 0
  %.not50 = icmp eq i32 %spec.select, 0
  br i1 %.not39, label %.preheader, label %.preheader41

.preheader41:                                     ; preds = %14
  br i1 %.not50, label %.loopexit40, label %.lr.ph.preheader

.lr.ph.preheader:                                 ; preds = %.preheader41
  %wide.trip.count = zext i32 %spec.select to i64
  br label %.lr.ph

.preheader:                                       ; preds = %14
  br i1 %.not50, label %.loopexit40, label %.lr.ph45.preheader

.lr.ph45.preheader:                               ; preds = %.preheader
  %18 = tail call i32 @llvm.umin.i32(i32 %15, i32 %1)
  %umin = zext i32 %18 to i64
  %19 = shl nuw nsw i64 %umin, 3
  tail call void @llvm.memset.p0.i64(ptr align 8 %2, i8 0, i64 %19, i1 false)
  br label %.loopexit40

.lr.ph:                                           ; preds = %.lr.ph.preheader, %.lr.ph
  %indvars.iv = phi i64 [ 0, %.lr.ph.preheader ], [ %indvars.iv.next, %.lr.ph ]
  %20 = load ptr, ptr %10, align 8
  %21 = getelementptr inbounds i64, ptr %20, i64 %indvars.iv
  %22 = load i64, ptr %21, align 8
  %23 = getelementptr inbounds i64, ptr %2, i64 %indvars.iv
  store i64 %22, ptr %23, align 8
  %indvars.iv.next = add nuw nsw i64 %indvars.iv, 1
  %exitcond.not = icmp eq i64 %indvars.iv.next, %wide.trip.count
  br i1 %exitcond.not, label %.loopexit40, label %.lr.ph, !llvm.loop !56

.loopexit40:                                      ; preds = %.lr.ph, %.lr.ph45.preheader, %.preheader41, %.preheader
  %.2 = phi i32 [ 0, %.preheader ], [ 0, %.preheader41 ], [ %spec.select, %.lr.ph45.preheader ], [ %spec.select, %.lr.ph ]
  %24 = icmp ult i32 %.2, %1
  br i1 %24, label %.lr.ph48.preheader, label %.loopexit

.lr.ph48.preheader:                               ; preds = %.loopexit40
  %25 = zext i32 %.2 to i64
  %26 = shl nuw nsw i64 %25, 3
  %scevgep = getelementptr i8, ptr %2, i64 %26
  %27 = xor i32 %.2, -1
  %28 = add i32 %27, %1
  %29 = zext i32 %28 to i64
  %30 = shl nuw nsw i64 %29, 3
  %31 = add nuw nsw i64 %30, 8
  tail call void @llvm.memset.p0.i64(ptr noundef nonnull align 8 dereferenceable(1) %scevgep, i8 0, i64 %31, i1 false)
  br label %.loopexit

.loopexit:                                        ; preds = %.lr.ph48.preheader, %.loopexit40, %12, %6
  %.031 = phi i32 [ %7, %6 ], [ %13, %12 ], [ 0, %.loopexit40 ], [ 0, %.lr.ph48.preheader ]
  ret i32 %.031
}